target datalayout = "e-m:e-p270:32:32-p271:32:32-p272:64:64-i64:64-i128:128-f80:128-n8:16:32:64-S128"
target triple = "x86_64-pc-linux-gnu"

%"class.folly::IPAddressV6" = type <{ %"union.folly::IPAddressV6::AddressStorage", i16, [2 x i8] }>
%"union.folly::IPAddressV6::AddressStorage" = type { %struct.in6_addr }
%struct.in6_addr = type { %union.anon }
%union.anon = type { [4 x i32] }
%"class.folly::IPAddressV4" = type { %"union.folly::IPAddressV4::AddressStorage" }
%"union.folly::IPAddressV4::AddressStorage" = type { %struct.in_addr }
%struct.in_addr = type { i32 }
%union.anon.33 = type { %struct.in_addr }

@_ZTIN5folly24IPAddressFormatExceptionE = linkonce_odr constant { ptr, ptr, ptr } { ptr getelementptr inbounds (ptr, ptr @_ZTVN10__cxxabiv120__si_class_type_infoE, i64 2), ptr @_ZTSN5folly24IPAddressFormatExceptionE, ptr @_ZTISt13runtime_error }, comdat, align 8
@.str.35 = private unnamed_addr constant [28 x i8] c"addr is not v4-to-v6-mapped\00", align 1

; Function Attrs: inlinehint mustprogress nounwind uwtable
define linkonce_odr i32 @_ZN5folly6detail5Bytes10mkAddress4EPKh(ptr noundef %0) #8 comdat align 2 {
  %2 = alloca %struct.in_addr, align 4
  %3 = alloca ptr, align 8
  %4 = alloca %union.anon.33, align 4
  store ptr %0, ptr %3, align 8, !tbaa !28
  call void @llvm.lifetime.start.p0(i64 4, ptr %4) #13
  call void @llvm.memset.p0.i64(ptr align 4 %4, i8 0, i64 4, i1 false)
  %5 = getelementptr inbounds [4 x i8], ptr %4, i64 0, i64 0
  %6 = load ptr, ptr %3, align 8, !tbaa !28
  call void @llvm.memcpy.p0.p0.i64(ptr align 4 %5, ptr align 1 %6, i64 4, i1 false)
  call void @llvm.memcpy.p0.p0.i64(ptr align 4 %2, ptr align 4 %4, i64 4, i1 false), !tbaa.struct !408
  call void @llvm.lifetime.end.p0(i64 4, ptr %4) #13
  %7 = getelementptr inbounds nuw %struct.in_addr, ptr %2, i32 0, i32 0
  %8 = load i32, ptr %7, align 4
  ret i32 %8
}

; Function Attrs: mustprogress nounwind uwtable
define linkonce_odr noundef ptr @_ZNK5folly11IPAddressV65bytesEv(ptr noundef nonnull align 4 dereferenceable(18) %0) #3 comdat align 2 {
  %2 = alloca ptr, align 8
  store ptr %0, ptr %2, align 8, !tbaa !7
  %3 = load ptr, ptr %2, align 8
  %4 = getelementptr inbounds nuw %"class.folly::IPAddressV6", ptr %3, i32 0, i32 0
  %5 = getelementptr inbounds nuw %struct.in6_addr, ptr %4, i32 0, i32 0
  %6 = getelementptr inbounds [16 x i8], ptr %5, i64 0, i64 0
  ret ptr %6
}

; Function Attrs: mustprogress nounwind uwtable
define noundef zeroext i1 @_ZNK5folly11IPAddressV612isIPv4MappedEv(ptr noundef nonnull align 4 dereferenceable(18) %0) #3 align 2 {
  %2 = alloca i1, align 1
  %3 = alloca ptr, align 8
  %4 = alloca ptr, align 8
  %5 = alloca i32, align 4
  %6 = alloca i32, align 4
  store ptr %0, ptr %3, align 8, !tbaa !7
  %7 = load ptr, ptr %3, align 8
  call void @llvm.lifetime.start.p0(i64 8, ptr %4) #13
  %8 = call noundef ptr @_ZNK5folly11IPAddressV65bytesEv(ptr noundef nonnull align 4 dereferenceable(18) %7)
  store ptr %8, ptr %4, align 8, !tbaa !28
  call void @llvm.lifetime.start.p0(i64 4, ptr %5) #13
  store i32 0, ptr %5, align 4, !tbaa !18
  br label %9

9:                                                ; preds = %23, %1
  %10 = load i32, ptr %5, align 4, !tbaa !18
  %11 = icmp slt i32 %10, 10
  br i1 %11, label %13, label %12

12:                                               ; preds = %9
  store i32 2, ptr %6, align 4
  br label %26

13:                                               ; preds = %9
  %14 = load ptr, ptr %4, align 8, !tbaa !28
  %15 = load i32, ptr %5, align 4, !tbaa !18
  %16 = sext i32 %15 to i64
  %17 = getelementptr inbounds i8, ptr %14, i64 %16
  %18 = load i8, ptr %17, align 1, !tbaa !22
  %19 = zext i8 %18 to i32
  %20 = icmp ne i32 %19, 0
  br i1 %20, label %21, label %22

21:                                               ; preds = %13
  store i1 false, ptr %2, align 1
  store i32 1, ptr %6, align 4
  br label %26

22:                                               ; preds = %13
  br label %23

23:                                               ; preds = %22
  %24 = load i32, ptr %5, align 4, !tbaa !18
  %25 = add nsw i32 %24, 1
  store i32 %25, ptr %5, align 4, !tbaa !18
  br label %9, !llvm.loop !407

26:                                               ; preds = %21, %12
  call void @llvm.lifetime.end.p0(i64 4, ptr %5) #13
  %27 = load i32, ptr %6, align 4
  switch i32 %27, label %42 [
    i32 2, label %28
  ]

28:                                               ; preds = %26
  %29 = load ptr, ptr %4, align 8, !tbaa !28
  %30 = getelementptr inbounds i8, ptr %29, i64 10
  %31 = load i8, ptr %30, align 1, !tbaa !22
  %32 = zext i8 %31 to i32
  %33 = icmp eq i32 %32, 255
  br i1 %33, label %34, label %40

34:                                               ; preds = %28
  %35 = load ptr, ptr %4, align 8, !tbaa !28
  %36 = getelementptr inbounds i8, ptr %35, i64 11
  %37 = load i8, ptr %36, align 1, !tbaa !22
  %38 = zext i8 %37 to i32
  %39 = icmp eq i32 %38, 255
  br label %40

40:                                               ; preds = %34, %28
  %41 = phi i1 [ false, %28 ], [ %39, %34 ]
  store i1 %41, ptr %2, align 1
  store i32 1, ptr %6, align 4
  br label %42

42:                                               ; preds = %40, %26
  call void @llvm.lifetime.end.p0(i64 8, ptr %4) #13
  %43 = load i1, ptr %2, align 1
  ret i1 %43
}

; Function Attrs: mustprogress uwtable
define i32 @_ZNK5folly11IPAddressV610createIPv4Ev(ptr noundef nonnull align 4 dereferenceable(18) %0) #0 align 2 personality ptr @__gxx_personality_v0 {
  %2 = alloca %"class.folly::IPAddressV4", align 4
  %3 = alloca ptr, align 8
  %4 = alloca ptr, align 8
  %5 = alloca i32, align 4
  %6 = alloca ptr, align 8
  %7 = alloca %struct.in_addr, align 4
  store ptr %0, ptr %3, align 8, !tbaa !7
  %8 = load ptr, ptr %3, align 8
  %9 = call noundef zeroext i1 @_ZNK5folly11IPAddressV612isIPv4MappedEv(ptr noundef nonnull align 4 dereferenceable(18) %8)
  br i1 %9, label %17, label %10

10:                                               ; preds = %1
  %11 = call ptr @__cxa_allocate_exception(i64 16) #13
  invoke void @_ZN5folly24IPAddressFormatExceptionCI2St13runtime_errorEPKc(ptr noundef nonnull align 8 dereferenceable(16) %11, ptr noundef @.str.35)
          to label %12 unwind label %13

12:                                               ; preds = %10
  call void @__cxa_throw(ptr %11, ptr @_ZTIN5folly24IPAddressFormatExceptionE, ptr @_ZNSt13runtime_errorD2Ev) #32
  unreachable

13:                                               ; preds = %10
  %14 = landingpad { ptr, i32 }
          cleanup
  %15 = extractvalue { ptr, i32 } %14, 0
  store ptr %15, ptr %4, align 8
  %16 = extractvalue { ptr, i32 } %14, 1
  store i32 %16, ptr %5, align 4
  call void @__cxa_free_exception(ptr %11) #13
  br label %29

17:                                               ; preds = %1
  call void @llvm.lifetime.start.p0(i64 8, ptr %6) #13
  %18 = call noundef ptr @_ZNK5folly11IPAddressV65bytesEv(ptr noundef nonnull align 4 dereferenceable(18) %8)
  store ptr %18, ptr %6, align 8, !tbaa !28
  %19 = load ptr, ptr %6, align 8, !tbaa !28
  %20 = getelementptr inbounds i8, ptr %19, i64 12
  %21 = call i32 @_ZN5folly6detail5Bytes10mkAddress4EPKh(ptr noundef %20)
  %22 = getelementptr inbounds nuw %struct.in_addr, ptr %7, i32 0, i32 0
  store i32 %21, ptr %22, align 4
  %23 = getelementptr inbounds nuw %struct.in_addr, ptr %7, i32 0, i32 0
  %24 = load i32, ptr %23, align 4
  call void @_ZN5folly11IPAddressV4C1E7in_addr(ptr noundef nonnull align 4 dereferenceable(4) %2, i32 %24) #13
  call void @llvm.lifetime.end.p0(i64 8, ptr %6) #13
  %25 = getelementptr inbounds nuw %"class.folly::IPAddressV4", ptr %2, i32 0, i32 0
  %26 = getelementptr inbounds nuw %"union.folly::IPAddressV4::AddressStorage", ptr %25, i32 0, i32 0
  %27 = getelementptr inbounds nuw %struct.in_addr, ptr %26, i32 0, i32 0
  %28 = load i32, ptr %27, align 4
  ret i32 %28

29:                                               ; preds = %13
  %30 = load ptr, ptr %4, align 8
  %31 = load i32, ptr %5, align 4
  %32 = insertvalue { ptr, i32 } poison, ptr %30, 0
  %33 = insertvalue { ptr, i32 } %32, i32 %31, 1
  resume { ptr, i32 } %33
}