; Function Attrs: mustprogress uwtable
define i32 @_ZNK5folly11IPAddressV610createIPv4Ev(ptr noundef nonnull readonly align 4 captures(none) dereferenceable(18) %0) local_unnamed_addr #0 align 2 personality ptr @__gxx_personality_v0 {
  %2 = alloca %"class.folly::IPAddressV4", align 4
  br label %4

3:                                                ; preds = %4
  %indvars.iv.next.i = add nuw nsw i64 %indvars.iv.i, 1
  %exitcond.i = icmp eq i64 %indvars.iv.next.i, 10
  br i1 %exitcond.i, label %.critedge.i, label %4, !llvm.loop !7

4:                                                ; preds = %3, %1
  %indvars.iv.i = phi i64 [ 0, %1 ], [ %indvars.iv.next.i, %3 ]
  %5 = getelementptr inbounds nuw i8, ptr %0, i64 %indvars.iv.i
  %6 = load i8, ptr %5, align 1, !tbaa !9
  %.not.i = icmp eq i8 %6, 0
  br i1 %.not.i, label %3, label %_ZNK5folly11IPAddressV612isIPv4MappedEv.exit.thread

.critedge.i:                                      ; preds = %3
  %7 = getelementptr inbounds nuw i8, ptr %0, i64 10
  %8 = load i8, ptr %7, align 2, !tbaa !9
  %9 = icmp eq i8 %8, -1
  %10 = getelementptr inbounds nuw i8, ptr %0, i64 11
  %11 = load i8, ptr %10, align 1
  %12 = icmp eq i8 %11, -1
  %or.cond = select i1 %9, i1 %12, i1 false
  br i1 %or.cond, label %17, label %_ZNK5folly11IPAddressV612isIPv4MappedEv.exit.thread

_ZNK5folly11IPAddressV612isIPv4MappedEv.exit.thread: ; preds = %4, %.critedge.i
  %13 = tail call ptr @__cxa_allocate_exception(i64 16) #37
  invoke void @_ZN5folly24IPAddressFormatExceptionCI2St13runtime_errorEPKc(ptr noundef nonnull align 8 dereferenceable(16) %13, ptr noundef nonnull @.str.35)
          to label %14 unwind label %15

14:                                               ; preds = %_ZNK5folly11IPAddressV612isIPv4MappedEv.exit.thread
  tail call void @__cxa_throw(ptr nonnull %13, ptr nonnull @_ZTIN5folly24IPAddressFormatExceptionE, ptr nonnull @_ZNSt13runtime_errorD2Ev) #40
  unreachable

15:                                               ; preds = %_ZNK5folly11IPAddressV612isIPv4MappedEv.exit.thread
  %16 = landingpad { ptr, i32 }
          cleanup
  tail call void @__cxa_free_exception(ptr nonnull %13) #37
  resume { ptr, i32 } %16

17:                                               ; preds = %.critedge.i
  %18 = getelementptr inbounds nuw i8, ptr %0, i64 12
  %.sroa.0.0.copyload.i = load i32, ptr %18, align 4
  call void @_ZN5folly11IPAddressV4C1E7in_addr(ptr noundef nonnull align 4 dereferenceable(4) %2, i32 %.sroa.0.0.copyload.i) #37
  %19 = load i32, ptr %2, align 4
  ret i32 %19
}